Certificate:
    Data:
        Version: 3 (0x2)
        Serial Number:
            b3:cb:d1:5b:de:6e:66:95
        Signature Algorithm: sha1WithRSAEncryption
        Issuer: C=KR, ST=Suwon, O=Samsung Electronics, OU=SLP, CN=SLP WebApp Temporary CA/emailAddress=yunchan.cho@samsung.com
        Validity
            Not Before: Dec  8 10:27:32 2011 GMT
            Not After : Nov 30 10:27:32 2021 GMT
        Subject: C=KR, ST=Suwon, O=Samsung Electronics, OU=SLP, CN=SLP WebApp Temporary CA/emailAddress=yunchan.cho@samsung.com
        Subject Public Key Info:
            Public Key Algorithm: rsaEncryption
                Public-Key: (1024 bit)
                Modulus:
                    00:cb:46:b8:94:81:b1:83:d7:29:05:2a:33:01:9e:
                    66:15:f8:be:bb:95:17:dd:7a:c4:c2:f5:d9:e4:aa:
                    fd:c8:8d:a9:48:65:fc:3d:dc:47:d7:2a:2f:5e:c7:
                    1f:22:ed:e0:98:e6:43:6d:74:82:ca:7d:22:9c:60:
                    44:18:cd:ca:d6:6b:16:ca:ed:63:c9:7a:f1:00:df:
                    e4:6b:33:47:2f:78:75:61:d7:c9:29:3e:a9:ee:76:
                    dd:2e:fe:9d:e7:3c:0d:02:f4:e9:2d:46:74:49:52:
                    ef:a0:d6:9d:4d:08:65:ea:6b:35:72:a5:08:d8:46:
                    46:03:99:7c:66:8c:60:c4:91
                Exponent: 65537 (0x10001)
        X509v3 extensions:
            X509v3 Subject Key Identifier: 
                47:A8:8F:CD:1F:22:BA:69:85:13:55:21:2D:C2:19:2D:5F:FF:DC:03
            X509v3 Authority Key Identifier: 
                keyid:47:A8:8F:CD:1F:22:BA:69:85:13:55:21:2D:C2:19:2D:5F:FF:DC:03

            X509v3 Basic Constraints: 
                CA:TRUE
    Signature Algorithm: sha1WithRSAEncryption
        c2:c4:62:f2:ec:6f:2b:05:9c:09:cc:ae:e9:77:a9:1d:66:6b:
        03:7b:01:3a:e6:29:bb:2a:b8:15:d8:a1:7d:9b:05:b4:8c:cb:
        ae:c7:eb:68:c0:e3:29:c7:e7:5a:ca:1a:0c:3a:ab:91:80:4f:
        9b:36:d4:45:b4:7b:2c:ef:f3:fd:cb:84:84:85:42:3d:ec:18:
        3f:5f:9e:b1:1f:8d:0a:57:89:51:e4:eb:7e:da:e9:79:82:61:
        38:ad:ca:94:43:71:00:73:13:b9:e9:ef:bc:68:c5:ff:5e:0a:
        f6:b9:2a:3d:1d:21:77:22:d0:4e:e7:ad:da:31:0b:51:fa:44:
        cd:fa
-----BEGIN CERTIFICATE-----
MIIC9jCCAl+gAwIBAgIJALPL0VvebmaVMA0GCSqGSIb3DQEBBQUAMIGTMQswCQYD
VQQGEwJLUjEOMAwGA1UECAwFU3V3b24xHDAaBgNVBAoME1NhbXN1bmcgRWxlY3Ry
b25pY3MxDDAKBgNVBAsMA1NMUDEgMB4GA1UEAwwXU0xQIFdlYkFwcCBUZW1wb3Jh
cnkgQ0ExJjAkBgkqhkiG9w0BCQEWF3l1bmNoYW4uY2hvQHNhbXN1bmcuY29tMB4X
DTExMTIwODEwMjczMloXDTIxMTEzMDEwMjczMlowgZMxCzAJBgNVBAYTAktSMQ4w
DAYDVQQIDAVTdXdvbjEcMBoGA1UECgwTU2Ftc3VuZyBFbGVjdHJvbmljczEMMAoG
A1UECwwDU0xQMSAwHgYDVQQDDBdTTFAgV2ViQXBwIFRlbXBvcmFyeSBDQTEmMCQG
CSqGSIb3DQEJARYXeXVuY2hhbi5jaG9Ac2Ftc3VuZy5jb20wgZ8wDQYJKoZIhvcN
AQEBBQADgY0AMIGJAoGBAMtGuJSBsYPXKQUqMwGeZhX4vruVF916xML12eSq/ciN
qUhl/D3cR9cqL17HHyLt4JjmQ210gsp9IpxgRBjNytZrFsrtY8l68QDf5GszRy94
dWHXySk+qe523S7+nec8DQL06S1GdElS76DWnU0IZeprNXKlCNhGRgOZfGaMYMSR
AgMBAAGjUDBOMB0GA1UdDgQWBBRHqI/NHyK6aYUTVSEtwhktX//cAzAfBgNVHSME
GDAWgBRHqI/NHyK6aYUTVSEtwhktX//cAzAMBgNVHRMEBTADAQH/MA0GCSqGSIb3
DQEBBQUAA4GBAMLEYvLsbysFnAnMrul3qR1mawN7ATrmKbsquBXYoX2bBbSMy67H
62jA4ynH51rKGgw6q5GAT5s21EW0eyzv8/3LhISFQj3sGD9fnrEfjQpXiVHk637a
6XmCYTitypRDcQBzE7np77xoxf9eCva5Kj0dIXci0E7nrdoxC1H6RM36
-----END CERTIFICATE-----
